; Function Attrs: nounwind uwtable
define hidden void @zflf_strpos_3(ptr noundef writeonly captures(none) %0, ptr noundef %1, ptr noundef %2, ptr noundef %3) local_unnamed_addr #0 {
  %5 = alloca %struct._zval_struct, align 8
  %6 = alloca %struct._zval_struct, align 8
  %7 = alloca ptr, align 8
  %8 = alloca ptr, align 8
  %9 = alloca i64, align 8
  call void @llvm.lifetime.start.p0(i64 16, ptr nonnull %5) #28
  call void @llvm.lifetime.start.p0(i64 16, ptr nonnull %6) #28
  call void @llvm.lifetime.start.p0(i64 8, ptr nonnull %7) #28
  call void @llvm.lifetime.start.p0(i64 8, ptr nonnull %8) #28
  call void @llvm.lifetime.start.p0(i64 8, ptr nonnull %9) #28
  %10 = getelementptr inbounds nuw i8, ptr %1, i64 8
  %11 = load i8, ptr %10, align 8, !tbaa !10
  %12 = icmp eq i8 %11, 6
  %13 = load ptr, ptr %1, align 8, !tbaa !10
  br i1 %12, label %.sink.split, label %14

14:                                               ; preds = %4
  %15 = load i32, ptr %10, align 8, !tbaa !10
  store ptr %13, ptr %5, align 8, !tbaa !10
  %16 = getelementptr inbounds nuw i8, ptr %5, i64 8
  store i32 %15, ptr %16, align 8, !tbaa !10
  %17 = and i32 %15, 65280
  %.not = icmp eq i32 %17, 0
  %18 = trunc i32 %15 to i8
  br i1 %.not, label %22, label %19

19:                                               ; preds = %14
  %20 = load i32, ptr %13, align 4, !tbaa !21
  %21 = add i32 %20, 1
  store i32 %21, ptr %13, align 4, !tbaa !21
  %.pre = load i8, ptr %16, align 8, !tbaa !10
  br label %22

22:                                               ; preds = %19, %14
  %23 = phi i8 [ %.pre, %19 ], [ %18, %14 ]
  %24 = icmp eq i8 %23, 6
  br i1 %24, label %zend_parse_arg_str_ex.exit36.thread, label %zend_parse_arg_str_ex.exit36, !prof !12

zend_parse_arg_str_ex.exit36.thread:              ; preds = %22
  %25 = load ptr, ptr %5, align 8, !tbaa !10
  br label %.sink.split

zend_parse_arg_str_ex.exit36:                     ; preds = %22
  %26 = call zeroext i1 @zend_flf_parse_arg_str_slow(ptr noundef nonnull %5, ptr noundef nonnull %7, i32 noundef 1) #28
  br i1 %26, label %27, label %.thread

.thread:                                          ; preds = %zend_parse_arg_str_ex.exit36
  call void @zend_wrong_parameter_type_error(i32 noundef 1, i32 noundef 4, ptr noundef nonnull %5) #28
  br label %59

.sink.split:                                      ; preds = %4, %zend_parse_arg_str_ex.exit36.thread
  %.sink = phi ptr [ %25, %zend_parse_arg_str_ex.exit36.thread ], [ %13, %4 ]
  %.0.ph = phi ptr [ %5, %zend_parse_arg_str_ex.exit36.thread ], [ %1, %4 ]
  store ptr %.sink, ptr %7, align 8, !tbaa !13
  br label %27

27:                                               ; preds = %.sink.split, %zend_parse_arg_str_ex.exit36
  %.0 = phi ptr [ %5, %zend_parse_arg_str_ex.exit36 ], [ %.0.ph, %.sink.split ]
  %28 = getelementptr inbounds nuw i8, ptr %2, i64 8
  %29 = load i8, ptr %28, align 8, !tbaa !10
  %30 = icmp eq i8 %29, 6
  br i1 %30, label %.sink.split48, label %31

31:                                               ; preds = %27
  %32 = load ptr, ptr %2, align 8, !tbaa !10
  %33 = load i32, ptr %28, align 8, !tbaa !10
  store ptr %32, ptr %6, align 8, !tbaa !10
  %34 = getelementptr inbounds nuw i8, ptr %6, i64 8
  store i32 %33, ptr %34, align 8, !tbaa !10
  %35 = and i32 %33, 65280
  %.not34 = icmp eq i32 %35, 0
  %36 = trunc i32 %33 to i8
  br i1 %.not34, label %40, label %37

37:                                               ; preds = %31
  %38 = load i32, ptr %32, align 4, !tbaa !21
  %39 = add i32 %38, 1
  store i32 %39, ptr %32, align 4, !tbaa !21
  %.pre46 = load i8, ptr %34, align 8, !tbaa !10
  br label %40

40:                                               ; preds = %37, %31
  %41 = phi i8 [ %.pre46, %37 ], [ %36, %31 ]
  %42 = icmp eq i8 %41, 6
  br i1 %42, label %.sink.split48, label %zend_parse_arg_str_ex.exit, !prof !12

zend_parse_arg_str_ex.exit:                       ; preds = %40
  %43 = call zeroext i1 @zend_flf_parse_arg_str_slow(ptr noundef nonnull %6, ptr noundef nonnull %8, i32 noundef 2) #28
  br i1 %43, label %46, label %44

44:                                               ; preds = %zend_parse_arg_str_ex.exit
  call void @zend_wrong_parameter_type_error(i32 noundef 2, i32 noundef 4, ptr noundef nonnull %6) #28
  br label %57

.sink.split48:                                    ; preds = %40, %27
  %.sink50 = phi ptr [ %2, %27 ], [ %6, %40 ]
  %45 = load ptr, ptr %.sink50, align 8, !tbaa !10
  store ptr %45, ptr %8, align 8, !tbaa !13
  br label %46

46:                                               ; preds = %.sink.split48, %zend_parse_arg_str_ex.exit
  %.133 = phi ptr [ %6, %zend_parse_arg_str_ex.exit ], [ %.sink50, %.sink.split48 ]
  %47 = getelementptr inbounds nuw i8, ptr %3, i64 8
  %48 = load i8, ptr %47, align 8, !tbaa !10
  %49 = icmp eq i8 %48, 4
  br i1 %49, label %zend_parse_arg_long_ex.exit.thread, label %zend_parse_arg_long_ex.exit, !prof !12

zend_parse_arg_long_ex.exit.thread:               ; preds = %46
  %50 = load i64, ptr %3, align 8, !tbaa !10
  store i64 %50, ptr %9, align 8, !tbaa !24
  br label %53

zend_parse_arg_long_ex.exit:                      ; preds = %46
  %51 = call zeroext i1 @zend_flf_parse_arg_long_slow(ptr noundef nonnull %3, ptr noundef nonnull %9, i32 noundef 3) #28
  br i1 %51, label %zend_parse_arg_long_ex.exit._crit_edge, label %52

zend_parse_arg_long_ex.exit._crit_edge:           ; preds = %zend_parse_arg_long_ex.exit
  %.pre47 = load i64, ptr %9, align 8, !tbaa !24
  br label %53

52:                                               ; preds = %zend_parse_arg_long_ex.exit
  call void @zend_wrong_parameter_type_error(i32 noundef 3, i32 noundef 0, ptr noundef nonnull %3) #28
  br label %57

53:                                               ; preds = %zend_parse_arg_long_ex.exit._crit_edge, %zend_parse_arg_long_ex.exit.thread
  %54 = phi i64 [ %.pre47, %zend_parse_arg_long_ex.exit._crit_edge ], [ %50, %zend_parse_arg_long_ex.exit.thread ]
  %55 = load ptr, ptr %7, align 8, !tbaa !13
  %56 = load ptr, ptr %8, align 8, !tbaa !13
  call fastcc void @_zend_strpos(ptr noundef %0, ptr noundef %55, ptr noundef %56, i64 noundef %54)
  br label %57

57:                                               ; preds = %53, %52, %44
  %.032 = phi ptr [ %.133, %53 ], [ %.133, %52 ], [ %6, %44 ]
  %58 = icmp eq ptr %.0, %5
  br i1 %58, label %59, label %60, !prof !15

59:                                               ; preds = %.thread, %57
  %.145 = phi ptr [ %5, %.thread ], [ %.0, %57 ]
  %.03244 = phi ptr [ %2, %.thread ], [ %.032, %57 ]
  call void @zval_ptr_dtor(ptr noundef nonnull %.145) #28
  br label %60

60:                                               ; preds = %59, %57
  %.03243 = phi ptr [ %.03244, %59 ], [ %.032, %57 ]
  %61 = icmp eq ptr %.03243, %6
  br i1 %61, label %62, label %63, !prof !23

62:                                               ; preds = %60
  call void @zval_ptr_dtor(ptr noundef %.03243) #28
  br label %63

63:                                               ; preds = %62, %60
  call void @llvm.lifetime.end.p0(i64 8, ptr nonnull %9) #28
  call void @llvm.lifetime.end.p0(i64 8, ptr nonnull %8) #28
  call void @llvm.lifetime.end.p0(i64 8, ptr nonnull %7) #28
  call void @llvm.lifetime.end.p0(i64 16, ptr nonnull %6) #28
  call void @llvm.lifetime.end.p0(i64 16, ptr nonnull %5) #28
  ret void
}